; Function Attrs: nounwind uwtable
define ptr @l_Lean_Elab_Term_withSynthesize___rarg(ptr noundef %0, ptr noundef %1, i8 noundef zeroext %2) local_unnamed_addr #0 {
  tail call void @lean_inc_heartbeat() #7
  %4 = tail call noalias ptr @mi_malloc_small(i64 noundef 32) #7
  %5 = icmp eq ptr %4, null
  br i1 %5, label %6, label %lean_alloc_closure.exit

6:                                                ; preds = %3
  tail call void @lean_internal_panic_out_of_memory() #8
  unreachable

lean_alloc_closure.exit:                          ; preds = %3
  %7 = zext i8 %2 to i64
  %8 = shl nuw nsw i64 %7, 1
  %9 = or disjoint i64 %8, 1
  %10 = inttoptr i64 %9 to ptr
  %11 = getelementptr inbounds nuw i8, ptr %4, i64 4
  store i32 1, ptr %4, align 4, !tbaa !7
  store i32 -184549344, ptr %11, align 4
  %12 = getelementptr inbounds nuw i8, ptr %4, i64 8
  store ptr @l_Lean_Elab_Term_withSynthesize___rarg___lambda__1___boxed, ptr %12, align 8, !tbaa !10
  %13 = getelementptr inbounds nuw i8, ptr %4, i64 16
  store i16 10, ptr %13, align 8, !tbaa !17
  %14 = getelementptr inbounds nuw i8, ptr %4, i64 18
  store i16 1, ptr %14, align 2, !tbaa !17
  %15 = getelementptr inbounds nuw i8, ptr %4, i64 24
  store ptr %10, ptr %15, align 8, !tbaa !10
  %16 = tail call ptr @lean_apply_3(ptr noundef %0, ptr noundef nonnull inttoptr (i64 1 to ptr), ptr noundef nonnull %4, ptr noundef %1) #7
  ret ptr %16
}